target datalayout = "e-m:e-p270:32:32-p271:32:32-p272:64:64-i64:64-i128:128-f80:128-n8:16:32:64-S128"
target triple = "x86_64-pc-linux-gnu"

%struct.SUNHashMap_ = type { i32, i32, ptr }

; Function Attrs: nounwind uwtable
define i32 @SUNHashMap_Sort(ptr noundef %0, ptr noundef %1, ptr noundef %2) #0 {
  %4 = alloca i32, align 4
  %5 = alloca ptr, align 8
  %6 = alloca ptr, align 8
  %7 = alloca ptr, align 8
  %8 = alloca i32, align 4
  %9 = alloca i32, align 4
  store ptr %0, ptr %5, align 8, !tbaa !10
  store ptr %1, ptr %6, align 8, !tbaa !28
  store ptr %2, ptr %7, align 8, !tbaa !19
  call void @llvm.lifetime.start.p0(i64 4, ptr %8) #6
  %10 = load ptr, ptr %5, align 8, !tbaa !10
  %11 = icmp ne ptr %10, null
  br i1 %11, label %12, label %15

12:                                               ; preds = %3
  %13 = load ptr, ptr %7, align 8, !tbaa !19
  %14 = icmp ne ptr %13, null
  br i1 %14, label %16, label %15

15:                                               ; preds = %12, %3
  store i32 -9999, ptr %4, align 4
  store i32 1, ptr %9, align 4
  br label %59

16:                                               ; preds = %12
  %17 = load ptr, ptr %5, align 8, !tbaa !10
  %18 = getelementptr inbounds nuw %struct.SUNHashMap_, ptr %17, i32 0, i32 1
  %19 = load i32, ptr %18, align 4, !tbaa !15
  %20 = sext i32 %19 to i64
  %21 = mul i64 %20, 8
  %22 = call noalias ptr @malloc(i64 noundef %21) #7
  %23 = load ptr, ptr %6, align 8, !tbaa !28
  store ptr %22, ptr %23, align 8, !tbaa !30
  %24 = load ptr, ptr %6, align 8, !tbaa !28
  %25 = load ptr, ptr %24, align 8, !tbaa !30
  %26 = icmp ne ptr %25, null
  br i1 %26, label %28, label %27

27:                                               ; preds = %16
  store i32 -9988, ptr %4, align 4
  store i32 1, ptr %9, align 4
  br label %59

28:                                               ; preds = %16
  store i32 0, ptr %8, align 4, !tbaa !3
  br label %29

29:                                               ; preds = %48, %28
  %30 = load i32, ptr %8, align 4, !tbaa !3
  %31 = load ptr, ptr %5, align 8, !tbaa !10
  %32 = getelementptr inbounds nuw %struct.SUNHashMap_, ptr %31, i32 0, i32 1
  %33 = load i32, ptr %32, align 4, !tbaa !15
  %34 = icmp slt i32 %30, %33
  br i1 %34, label %35, label %51

35:                                               ; preds = %29
  %36 = load ptr, ptr %5, align 8, !tbaa !10
  %37 = getelementptr inbounds nuw %struct.SUNHashMap_, ptr %36, i32 0, i32 2
  %38 = load ptr, ptr %37, align 8, !tbaa !16
  %39 = load i32, ptr %8, align 4, !tbaa !3
  %40 = sext i32 %39 to i64
  %41 = getelementptr inbounds ptr, ptr %38, i64 %40
  %42 = load ptr, ptr %41, align 8, !tbaa !17
  %43 = load ptr, ptr %6, align 8, !tbaa !28
  %44 = load ptr, ptr %43, align 8, !tbaa !30
  %45 = load i32, ptr %8, align 4, !tbaa !3
  %46 = sext i32 %45 to i64
  %47 = getelementptr inbounds ptr, ptr %44, i64 %46
  store ptr %42, ptr %47, align 8, !tbaa !17
  br label %48

48:                                               ; preds = %35
  %49 = load i32, ptr %8, align 4, !tbaa !3
  %50 = add nsw i32 %49, 1
  store i32 %50, ptr %8, align 4, !tbaa !3
  br label %29

51:                                               ; preds = %29
  %52 = load ptr, ptr %6, align 8, !tbaa !28
  %53 = load ptr, ptr %52, align 8, !tbaa !30
  %54 = load ptr, ptr %5, align 8, !tbaa !10
  %55 = getelementptr inbounds nuw %struct.SUNHashMap_, ptr %54, i32 0, i32 1
  %56 = load i32, ptr %55, align 4, !tbaa !15
  %57 = sext i32 %56 to i64
  %58 = load ptr, ptr %7, align 8, !tbaa !19
  call void @qsort(ptr noundef %53, i64 noundef %57, i64 noundef 8, ptr noundef %58)
  store i32 0, ptr %4, align 4
  store i32 1, ptr %9, align 4
  br label %59

59:                                               ; preds = %51, %27, %15
  call void @llvm.lifetime.end.p0(i64 4, ptr %8) #6
  %60 = load i32, ptr %4, align 4
  ret i32 %60
}